; ModuleID = 'ode-unopt.ll'
source_filename = "ode.cpp"
target datalayout = "e-m:e-p270:32:32-p271:32:32-p272:64:64-i64:64-f80:128-n8:16:32:64-S128"
target triple = "x86_64-unknown-linux-gnu"

%"class.std::ios_base::Init" = type { i8 }
%"class.boost::array.1" = type { [1 x double] }
%struct.timeval = type { i64, i64 }

@_ZStL8__ioinit = internal global %"class.std::ios_base::Init" zeroinitializer, align 1
@.str = private unnamed_addr constant [10 x i8] c"iters=%d\0A\00", align 1
@.str.3 = private unnamed_addr constant [26 x i8] c"Enzyme real %0.6f res=%f\0A\00", align 1
@.str.4 = private unnamed_addr constant [29 x i8] c"Enzyme forward %0.6f res=%f\0A\00", align 1
@.str.5 = private unnamed_addr constant [31 x i8] c"Enzyme combined %0.6f res'=%f\0A\00", align 1
@llvm.global_ctors = appending global [1 x { i32, void ()*, i8* }] [{ i32, void ()*, i8* } { i32 65535, void ()* @_GLOBAL__sub_I_ode.cpp, i8* null }]

declare dso_local void @_ZNSt8ios_base4InitC1Ev(%"class.std::ios_base::Init"* nonnull dereferenceable(1)) unnamed_addr #0

; Function Attrs: nounwind
declare dso_local void @_ZNSt8ios_base4InitD1Ev(%"class.std::ios_base::Init"* nonnull dereferenceable(1)) unnamed_addr #1

; Function Attrs: nounwind uwtable
define internal void @__dtor__ZStL8__ioinit() #2 section ".text.startup" {
entry:
  tail call void @_ZNSt8ios_base4InitD1Ev(%"class.std::ios_base::Init"* @_ZStL8__ioinit)
  ret void
}

; Function Attrs: nounwind
declare dso_local i32 @atexit(void ()*) local_unnamed_addr #3

; Function Attrs: nofree norecurse nounwind uwtable willreturn mustprogress
define dso_local void @_Z6lorenzRKN5boost5arrayIdLm1EEERS1_d(%"class.boost::array.1"* nocapture nonnull readonly align 8 dereferenceable(8) %x, %"class.boost::array.1"* nocapture nonnull align 8 dereferenceable(8) %dxdt, double %t) local_unnamed_addr #4 {
entry:
  %arrayidx.i = getelementptr inbounds %"class.boost::array.1", %"class.boost::array.1"* %x, i64 0, i32 0, i64 0
  %0 = load double, double* %arrayidx.i, align 8, !tbaa !2
  %mul = fmul fast double %0, -1.200000e+00
  %arrayidx.i3 = getelementptr inbounds %"class.boost::array.1", %"class.boost::array.1"* %dxdt, i64 0, i32 0, i64 0
  store double %mul, double* %arrayidx.i3, align 8, !tbaa !2
  ret void
}

; Function Attrs: argmemonly nofree nosync nounwind willreturn
declare void @llvm.lifetime.start.p0i8(i64 immarg, i8* nocapture) #5

; Function Attrs: argmemonly nofree nosync nounwind willreturn
declare void @llvm.lifetime.end.p0i8(i64 immarg, i8* nocapture) #5

; Function Attrs: nounwind readnone uwtable
define dso_local double @_Z6foobardm(double %t, i64 %iters) #6 personality i32 (...)* @__gxx_personality_v0 {
entry:
  %conv = uitofp i64 %iters to double
  %div = fdiv fast double %t, %conv
  %cmp.i.i.i.i = fcmp fast ogt double %div, 0.000000e+00
  %sub.i21.i.i.i = fsub fast double %div, %t
  %cmp2.i22.i.i.i = fcmp fast ole double %sub.i21.i.i.i, 0x3CB0000000000000
  %sub3.i23.i.i.i = fsub fast double %t, %div
  %cmp5.i24.i.i.i = fcmp fast ole double %sub3.i23.i.i.i, 0x3CB0000000000000
  %retval.0.i25.i.i.i = select i1 %cmp.i.i.i.i, i1 %cmp2.i22.i.i.i, i1 %cmp5.i24.i.i.i
  br i1 %retval.0.i25.i.i.i, label %while.body.i.i.i.preheader, label %_ZN5boost7numeric6odeint15integrate_constINS1_5eulerINS_5arrayIdLm1EEEdS5_dNS1_13array_algebraENS1_18default_operationsENS1_17initially_resizerEEEPFvRKS5_RS5_dES5_dEEmT_T0_RT1_T2_SJ_SJ_.exit

while.body.i.i.i.preheader:                       ; preds = %entry
  %mul.i = fmul fast double %div, 1.200000e+00
  br label %while.body.i.i.i

while.body.i.i.i:                                 ; preds = %while.body.i.i.i, %while.body.i.i.i.preheader
  %x.sroa.0.0 = phi double [ %0, %while.body.i.i.i ], [ 1.000000e+00, %while.body.i.i.i.preheader ]
  %step.027.i.i.i = phi i32 [ %inc.i.i.i, %while.body.i.i.i ], [ 0, %while.body.i.i.i.preheader ]
  %mul2.i.i.i.i.i.i.i.i = fmul fast double %mul.i, %x.sroa.0.0
  %0 = fsub fast double %x.sroa.0.0, %mul2.i.i.i.i.i.i.i.i
  %inc.i.i.i = add nuw nsw i32 %step.027.i.i.i, 1
  %conv.i.i.i = sitofp i32 %inc.i.i.i to double
  %mul.i.i.i = fmul fast double %div, %conv.i.i.i
  %add.i.i.i = fadd fast double %mul.i.i.i, %div
  %sub.i.i.i.i = fsub fast double %add.i.i.i, %t
  %cmp2.i.i.i.i = fcmp fast ole double %sub.i.i.i.i, 0x3CB0000000000000
  %sub3.i.i.i.i = fsub fast double %t, %add.i.i.i
  %cmp5.i.i.i.i = fcmp fast ole double %sub3.i.i.i.i, 0x3CB0000000000000
  %retval.0.i.i.i.i = select i1 %cmp.i.i.i.i, i1 %cmp2.i.i.i.i, i1 %cmp5.i.i.i.i
  br i1 %retval.0.i.i.i.i, label %while.body.i.i.i, label %_ZN5boost7numeric6odeint15integrate_constINS1_5eulerINS_5arrayIdLm1EEEdS5_dNS1_13array_algebraENS1_18default_operationsENS1_17initially_resizerEEEPFvRKS5_RS5_dES5_dEEmT_T0_RT1_T2_SJ_SJ_.exit, !llvm.loop !6

_ZN5boost7numeric6odeint15integrate_constINS1_5eulerINS_5arrayIdLm1EEEdS5_dNS1_13array_algebraENS1_18default_operationsENS1_17initially_resizerEEEPFvRKS5_RS5_dES5_dEEmT_T0_RT1_T2_SJ_SJ_.exit: ; preds = %while.body.i.i.i, %entry
  %x.sroa.0.1 = phi double [ 1.000000e+00, %entry ], [ %0, %while.body.i.i.i ]
  ret double %x.sroa.0.1
}

; Function Attrs: norecurse uwtable
define dso_local i32 @main(i32 %argc, i8** nocapture readonly %argv) local_unnamed_addr #7 personality i32 (...)* @__gxx_personality_v0 {
entry:
  %start.i = alloca %struct.timeval, align 8
  %end.i = alloca %struct.timeval, align 8
  %start5.i = alloca %struct.timeval, align 8
  %end6.i = alloca %struct.timeval, align 8
  %start14.i = alloca %struct.timeval, align 8
  %end15.i = alloca %struct.timeval, align 8
  %arrayidx = getelementptr inbounds i8*, i8** %argv, i64 1
  %0 = load i8*, i8** %arrayidx, align 8, !tbaa !9
  %call.i = tail call i64 @strtol(i8* nocapture nonnull %0, i8** null, i32 10) #3
  %conv.i = trunc i64 %call.i to i32
  %div = sdiv i32 %conv.i, 20
  %cmp.not20 = icmp sgt i32 %div, %conv.i
  br i1 %cmp.not20, label %cleanup, label %for.body.lr.ph

for.body.lr.ph:                                   ; preds = %entry
  %1 = bitcast %struct.timeval* %start.i to i8*
  %2 = bitcast %struct.timeval* %end.i to i8*
  %tv_sec.i38.i = getelementptr inbounds %struct.timeval, %struct.timeval* %end.i, i64 0, i32 0
  %tv_sec1.i39.i = getelementptr inbounds %struct.timeval, %struct.timeval* %start.i, i64 0, i32 0
  %tv_usec.i42.i = getelementptr inbounds %struct.timeval, %struct.timeval* %end.i, i64 0, i32 1
  %tv_usec2.i43.i = getelementptr inbounds %struct.timeval, %struct.timeval* %start.i, i64 0, i32 1
  %3 = bitcast %struct.timeval* %start5.i to i8*
  %4 = bitcast %struct.timeval* %end6.i to i8*
  %tv_sec.i2.i = getelementptr inbounds %struct.timeval, %struct.timeval* %end6.i, i64 0, i32 0
  %tv_sec1.i3.i = getelementptr inbounds %struct.timeval, %struct.timeval* %start5.i, i64 0, i32 0
  %tv_usec.i6.i = getelementptr inbounds %struct.timeval, %struct.timeval* %end6.i, i64 0, i32 1
  %tv_usec2.i7.i = getelementptr inbounds %struct.timeval, %struct.timeval* %start5.i, i64 0, i32 1
  %5 = bitcast %struct.timeval* %start14.i to i8*
  %6 = bitcast %struct.timeval* %end15.i to i8*
  %tv_sec.i.i = getelementptr inbounds %struct.timeval, %struct.timeval* %end15.i, i64 0, i32 0
  %tv_sec1.i.i = getelementptr inbounds %struct.timeval, %struct.timeval* %start14.i, i64 0, i32 0
  %tv_usec.i.i = getelementptr inbounds %struct.timeval, %struct.timeval* %end15.i, i64 0, i32 1
  %tv_usec2.i.i = getelementptr inbounds %struct.timeval, %struct.timeval* %start14.i, i64 0, i32 1
  %7 = sext i32 %div to i64
  %sext = shl i64 %call.i, 32
  %8 = ashr exact i64 %sext, 32
  br label %for.body

for.body:                                         ; preds = %_ZL13enzyme_sincosdm.exit, %for.body.lr.ph
  %indvars.iv = phi i64 [ %indvars.iv.next, %_ZL13enzyme_sincosdm.exit ], [ %7, %for.body.lr.ph ]
  %i.021 = phi i32 [ %inc, %_ZL13enzyme_sincosdm.exit ], [ 0, %for.body.lr.ph ]
  %9 = trunc i64 %indvars.iv to i32
  %call1 = tail call i32 (i8*, ...) @printf(i8* nonnull dereferenceable(1) getelementptr inbounds ([10 x i8], [10 x i8]* @.str, i64 0, i64 0), i32 %9)
  tail call void @_Z12adept_sincosdm(double 2.100000e+00, i64 %indvars.iv)
  call void @llvm.lifetime.start.p0i8(i64 16, i8* nonnull %1) #3
  call void @llvm.lifetime.start.p0i8(i64 16, i8* nonnull %2) #3
  %call.i17 = call i32 @gettimeofday(%struct.timeval* nonnull %start.i, i8* null) #3
  %conv.i.i = uitofp i64 %indvars.iv to double
  %div.i.i = fdiv fast double 2.100000e+00, %conv.i.i
  %10 = icmp eq i64 %indvars.iv, 0
  %sub.i21.i.i.i.i.i = fadd fast double %div.i.i, -2.100000e+00
  %cmp2.i22.i.i.i.i.i = fcmp fast ole double %sub.i21.i.i.i.i.i, 0x3CB0000000000000
  %sub3.i23.i.i.i.i.i = fsub fast double 2.100000e+00, %div.i.i
  %cmp5.i24.i.i.i.i.i = fcmp fast ole double %sub3.i23.i.i.i.i.i, 0x3CB0000000000000
  %retval.0.i25.i.i.i.i.i = select i1 %10, i1 %cmp5.i24.i.i.i.i.i, i1 %cmp2.i22.i.i.i.i.i
  br i1 %retval.0.i25.i.i.i.i.i, label %while.body.i.i.i.preheader.i.i, label %_Z6foobardm.exit.i

while.body.i.i.i.preheader.i.i:                   ; preds = %for.body
  %mul.i.i.i = fmul fast double %div.i.i, 1.200000e+00
  br label %while.body.i.i.i.i.i

while.body.i.i.i.i.i:                             ; preds = %while.body.i.i.i.i.i, %while.body.i.i.i.preheader.i.i
  %x.sroa.0.0.i.i = phi double [ %11, %while.body.i.i.i.i.i ], [ 1.000000e+00, %while.body.i.i.i.preheader.i.i ]
  %step.027.i.i.i.i.i = phi i32 [ %inc.i.i.i.i.i, %while.body.i.i.i.i.i ], [ 0, %while.body.i.i.i.preheader.i.i ]
  %mul2.i.i.i.i.i.i.i.i.i.i = fmul fast double %mul.i.i.i, %x.sroa.0.0.i.i
  %11 = fsub fast double %x.sroa.0.0.i.i, %mul2.i.i.i.i.i.i.i.i.i.i
  %inc.i.i.i.i.i = add nuw nsw i32 %step.027.i.i.i.i.i, 1
  %conv.i.i.i.i.i = sitofp i32 %inc.i.i.i.i.i to double
  %mul.i.i.i.i.i = fmul fast double %div.i.i, %conv.i.i.i.i.i
  %add.i.i.i.i.i = fadd fast double %mul.i.i.i.i.i, %div.i.i
  %sub.i.i.i.i.i.i = fadd fast double %add.i.i.i.i.i, -2.100000e+00
  %cmp2.i.i.i.i.i.i = fcmp fast ole double %sub.i.i.i.i.i.i, 0x3CB0000000000000
  %sub3.i.i.i.i.i.i = fsub fast double 2.100000e+00, %add.i.i.i.i.i
  %cmp5.i.i.i.i.i.i = fcmp fast ole double %sub3.i.i.i.i.i.i, 0x3CB0000000000000
  %retval.0.i.i.i.i.i.i = select i1 %10, i1 %cmp5.i.i.i.i.i.i, i1 %cmp2.i.i.i.i.i.i
  br i1 %retval.0.i.i.i.i.i.i, label %while.body.i.i.i.i.i, label %_Z6foobardm.exit.i, !llvm.loop !6

_Z6foobardm.exit.i:                               ; preds = %while.body.i.i.i.i.i, %for.body
  %x.sroa.0.1.i.i = phi double [ 1.000000e+00, %for.body ], [ %11, %while.body.i.i.i.i.i ]
  %call2.i = call i32 @gettimeofday(%struct.timeval* nonnull %end.i, i8* null) #3
  %12 = load i64, i64* %tv_sec.i38.i, align 8, !tbaa !11
  %13 = load i64, i64* %tv_sec1.i39.i, align 8, !tbaa !11
  %sub.i40.i = sub nsw i64 %12, %13
  %conv.i41.i = sitofp i64 %sub.i40.i to double
  %14 = load i64, i64* %tv_usec.i42.i, align 8, !tbaa !14
  %15 = load i64, i64* %tv_usec2.i43.i, align 8, !tbaa !14
  %sub3.i44.i = sub nsw i64 %14, %15
  %conv4.i45.i = sitofp i64 %sub3.i44.i to double
  %mul.i46.i = fmul fast double %conv4.i45.i, 0x3EB0C6F7A0B5ED8D
  %add.i47.i = fadd fast double %mul.i46.i, %conv.i41.i
  %conv5.i48.i = fptrunc double %add.i47.i to float
  %conv.i18 = fpext float %conv5.i48.i to double
  %call4.i = tail call i32 (i8*, ...) @printf(i8* nonnull dereferenceable(1) getelementptr inbounds ([26 x i8], [26 x i8]* @.str.3, i64 0, i64 0), double %conv.i18, double %x.sroa.0.1.i.i)
  call void @llvm.lifetime.end.p0i8(i64 16, i8* nonnull %2) #3
  call void @llvm.lifetime.end.p0i8(i64 16, i8* nonnull %1) #3
  call void @llvm.lifetime.start.p0i8(i64 16, i8* nonnull %3) #3
  call void @llvm.lifetime.start.p0i8(i64 16, i8* nonnull %4) #3
  %call7.i = call i32 @gettimeofday(%struct.timeval* nonnull %start5.i, i8* null) #3
  br i1 %retval.0.i25.i.i.i.i.i, label %while.body.i.i.i.preheader.i22.i, label %_ZL13enzyme_sincosdm.exit

while.body.i.i.i.preheader.i22.i:                 ; preds = %_Z6foobardm.exit.i
  %mul.i.i21.i = fmul fast double %div.i.i, 1.200000e+00
  br label %while.body.i.i.i.i35.i

while.body.i.i.i.i35.i:                           ; preds = %while.body.i.i.i.i35.i, %while.body.i.i.i.preheader.i22.i
  %x.sroa.0.0.i23.i = phi double [ %16, %while.body.i.i.i.i35.i ], [ 1.000000e+00, %while.body.i.i.i.preheader.i22.i ]
  %step.027.i.i.i.i24.i = phi i32 [ %inc.i.i.i.i26.i, %while.body.i.i.i.i35.i ], [ 0, %while.body.i.i.i.preheader.i22.i ]
  %mul2.i.i.i.i.i.i.i.i.i25.i = fmul fast double %mul.i.i21.i, %x.sroa.0.0.i23.i
  %16 = fsub fast double %x.sroa.0.0.i23.i, %mul2.i.i.i.i.i.i.i.i.i25.i
  %inc.i.i.i.i26.i = add nuw nsw i32 %step.027.i.i.i.i24.i, 1
  %conv.i.i.i.i27.i = sitofp i32 %inc.i.i.i.i26.i to double
  %mul.i.i.i.i28.i = fmul fast double %div.i.i, %conv.i.i.i.i27.i
  %add.i.i.i.i29.i = fadd fast double %mul.i.i.i.i28.i, %div.i.i
  %sub.i.i.i.i.i30.i = fadd fast double %add.i.i.i.i29.i, -2.100000e+00
  %cmp2.i.i.i.i.i31.i = fcmp fast ole double %sub.i.i.i.i.i30.i, 0x3CB0000000000000
  %sub3.i.i.i.i.i32.i = fsub fast double 2.100000e+00, %add.i.i.i.i29.i
  %cmp5.i.i.i.i.i33.i = fcmp fast ole double %sub3.i.i.i.i.i32.i, 0x3CB0000000000000
  %retval.0.i.i.i.i.i34.i = select i1 %10, i1 %cmp5.i.i.i.i.i33.i, i1 %cmp2.i.i.i.i.i31.i
  br i1 %retval.0.i.i.i.i.i34.i, label %while.body.i.i.i.i35.i, label %_ZL13enzyme_sincosdm.exit, !llvm.loop !6

_ZL13enzyme_sincosdm.exit:                        ; preds = %while.body.i.i.i.i35.i, %_Z6foobardm.exit.i
  %x.sroa.0.1.i36.i = phi double [ 1.000000e+00, %_Z6foobardm.exit.i ], [ %16, %while.body.i.i.i.i35.i ]
  %call10.i = call i32 @gettimeofday(%struct.timeval* nonnull %end6.i, i8* null) #3
  %17 = load i64, i64* %tv_sec.i2.i, align 8, !tbaa !11
  %18 = load i64, i64* %tv_sec1.i3.i, align 8, !tbaa !11
  %sub.i4.i = sub nsw i64 %17, %18
  %conv.i5.i = sitofp i64 %sub.i4.i to double
  %19 = load i64, i64* %tv_usec.i6.i, align 8, !tbaa !14
  %20 = load i64, i64* %tv_usec2.i7.i, align 8, !tbaa !14
  %sub3.i8.i = sub nsw i64 %19, %20
  %conv4.i9.i = sitofp i64 %sub3.i8.i to double
  %mul.i10.i = fmul fast double %conv4.i9.i, 0x3EB0C6F7A0B5ED8D
  %add.i11.i = fadd fast double %mul.i10.i, %conv.i5.i
  %conv5.i12.i = fptrunc double %add.i11.i to float
  %conv12.i = fpext float %conv5.i12.i to double
  %call13.i = tail call i32 (i8*, ...) @printf(i8* nonnull dereferenceable(1) getelementptr inbounds ([29 x i8], [29 x i8]* @.str.4, i64 0, i64 0), double %conv12.i, double %x.sroa.0.1.i36.i)
  call void @llvm.lifetime.end.p0i8(i64 16, i8* nonnull %4) #3
  call void @llvm.lifetime.end.p0i8(i64 16, i8* nonnull %3) #3
  call void @llvm.lifetime.start.p0i8(i64 16, i8* nonnull %5) #3
  call void @llvm.lifetime.start.p0i8(i64 16, i8* nonnull %6) #3
  %call16.i = call i32 @gettimeofday(%struct.timeval* nonnull %start14.i, i8* null) #3
  %21 = call { double } @diffe_Z6foobardm(double 2.100000e+00, i64 %indvars.iv, double 1.000000e+00)
  %22 = extractvalue { double } %21, 0
  %call18.i = call i32 @gettimeofday(%struct.timeval* nonnull %end15.i, i8* null) #3
  %23 = load i64, i64* %tv_sec.i.i, align 8, !tbaa !11
  %24 = load i64, i64* %tv_sec1.i.i, align 8, !tbaa !11
  %sub.i.i = sub nsw i64 %23, %24
  %conv.i1.i = sitofp i64 %sub.i.i to double
  %25 = load i64, i64* %tv_usec.i.i, align 8, !tbaa !14
  %26 = load i64, i64* %tv_usec2.i.i, align 8, !tbaa !14
  %sub3.i.i = sub nsw i64 %25, %26
  %conv4.i.i = sitofp i64 %sub3.i.i to double
  %mul.i.i = fmul fast double %conv4.i.i, 0x3EB0C6F7A0B5ED8D
  %add.i.i = fadd fast double %mul.i.i, %conv.i1.i
  %conv5.i.i = fptrunc double %add.i.i to float
  %conv20.i = fpext float %conv5.i.i to double
  %call21.i = tail call i32 (i8*, ...) @printf(i8* nonnull dereferenceable(1) getelementptr inbounds ([31 x i8], [31 x i8]* @.str.5, i64 0, i64 0), double %conv20.i, double %22)
  call void @llvm.lifetime.end.p0i8(i64 16, i8* nonnull %6) #3
  call void @llvm.lifetime.end.p0i8(i64 16, i8* nonnull %5) #3
  %inc = add nuw nsw i32 %i.021, 1
  %cmp3 = icmp eq i32 %inc, 10
  %indvars.iv.next = add i64 %indvars.iv, %7
  %cmp.not = icmp sgt i64 %indvars.iv.next, %8
  %or.cond = or i1 %cmp3, %cmp.not
  br i1 %or.cond, label %cleanup, label %for.body, !llvm.loop !15

cleanup:                                          ; preds = %_ZL13enzyme_sincosdm.exit, %entry
  ret i32 0
}

; Function Attrs: nofree nounwind
declare dso_local noundef i32 @printf(i8* nocapture noundef readonly, ...) local_unnamed_addr #8

declare dso_local void @_Z12adept_sincosdm(double, i64) local_unnamed_addr #0

; Function Attrs: nofree nounwind willreturn
declare dso_local i64 @strtol(i8* readonly, i8** nocapture, i32) local_unnamed_addr #9

; Function Attrs: nofree nounwind
declare dso_local noundef i32 @gettimeofday(%struct.timeval* nocapture noundef, i8* nocapture noundef) local_unnamed_addr #8

declare dso_local double @_Z17__enzyme_autodiffIdJPFddmEdmEET_DpT0_(double (double, i64)*, double, i64) local_unnamed_addr #0

declare dso_local i32 @__gxx_personality_v0(...)

; Function Attrs: uwtable
define internal void @_GLOBAL__sub_I_ode.cpp() #10 section ".text.startup" {
entry:
  tail call void @_ZNSt8ios_base4InitC1Ev(%"class.std::ios_base::Init"* nonnull dereferenceable(1) @_ZStL8__ioinit)
  %0 = tail call i32 @atexit(void ()* nonnull @__dtor__ZStL8__ioinit) #3
  ret void
}

; Function Attrs: nounwind readnone uwtable willreturn mustprogress
define internal { double } @diffe_Z6foobardm(double %t, i64 %iters, double %differeturn) #11 personality i32 (...)* @__gxx_personality_v0 {
entry:
  %"iv'ac" = alloca i64, align 8
  %loopLimit_cache = alloca i64, align 8
  %"x.sroa.0.1'de" = alloca double, align 8
  store double 0.000000e+00, double* %"x.sroa.0.1'de", align 8
  %"div'de" = alloca double, align 8
  store double 0.000000e+00, double* %"div'de", align 8
  %"t'de" = alloca double, align 8
  store double 0.000000e+00, double* %"t'de", align 8
  %"mul.i'de" = alloca double, align 8
  store double 0.000000e+00, double* %"mul.i'de", align 8
  %"'de" = alloca double, align 8
  store double 0.000000e+00, double* %"'de", align 8
  %"x.sroa.0.0'de" = alloca double, align 8
  store double 0.000000e+00, double* %"x.sroa.0.0'de", align 8
  %"mul2.i.i.i.i.i.i.i.i'de" = alloca double, align 8
  store double 0.000000e+00, double* %"mul2.i.i.i.i.i.i.i.i'de", align 8
  %x.sroa.0.0_cache = alloca double*, align 8
  %conv = uitofp i64 %iters to double
  %div = fdiv fast double %t, %conv
  %cmp.i.i.i.i = fcmp fast ogt double %div, 0.000000e+00
  %sub.i21.i.i.i = fsub fast double %div, %t
  %cmp2.i22.i.i.i = fcmp fast ole double %sub.i21.i.i.i, 0x3CB0000000000000
  %sub3.i23.i.i.i = fsub fast double %t, %div
  %cmp5.i24.i.i.i = fcmp fast ole double %sub3.i23.i.i.i, 0x3CB0000000000000
  %retval.0.i25.i.i.i = select i1 %cmp.i.i.i.i, i1 %cmp2.i22.i.i.i, i1 %cmp5.i24.i.i.i
  br i1 %retval.0.i25.i.i.i, label %while.body.i.i.i.preheader, label %_ZN5boost7numeric6odeint15integrate_constINS1_5eulerINS_5arrayIdLm1EEEdS5_dNS1_13array_algebraENS1_18default_operationsENS1_17initially_resizerEEEPFvRKS5_RS5_dES5_dEEmT_T0_RT1_T2_SJ_SJ_.exit

while.body.i.i.i.preheader:                       ; preds = %entry
  %mul.i = fmul fast double %div, 1.200000e+00
  store double* null, double** %x.sroa.0.0_cache, align 8
  br label %while.body.i.i.i

while.body.i.i.i:                                 ; preds = %__enzyme_exponentialallocation.exit, %while.body.i.i.i.preheader
  %iv = phi i64 [ %iv.next, %__enzyme_exponentialallocation.exit ], [ 0, %while.body.i.i.i.preheader ]
  %x.sroa.0.0 = phi double [ %19, %__enzyme_exponentialallocation.exit ], [ 1.000000e+00, %while.body.i.i.i.preheader ]
  %iv.next = add nuw nsw i64 %iv, 1
  %0 = load double*, double** %x.sroa.0.0_cache, align 8
  %1 = bitcast double* %0 to i8*
  %2 = and i64 %iv.next, 1
  %3 = icmp ne i64 %2, 0
  %4 = call i64 @llvm.ctpop.i64(i64 %iv.next) #3
  %5 = icmp ult i64 %4, 3
  %6 = and i1 %5, %3
  br i1 %6, label %grow.i, label %__enzyme_exponentialallocation.exit

grow.i:                                           ; preds = %while.body.i.i.i
  %7 = call i64 @llvm.ctlz.i64(i64 %iv.next, i1 true) #3
  %8 = sub nuw nsw i64 64, %7
  %9 = shl i64 8, %8
  %10 = lshr i64 %9, 1
  %11 = icmp eq i64 %iv.next, 1
  %12 = select i1 %11, i64 0, i64 %10
  %13 = call i8* @realloc(i8* %1, i64 %9) #3
  br label %__enzyme_exponentialallocation.exit

__enzyme_exponentialallocation.exit:              ; preds = %while.body.i.i.i, %grow.i
  %14 = phi i8* [ %13, %grow.i ], [ %1, %while.body.i.i.i ]
  %15 = bitcast i8* %14 to double*
  store double* %15, double** %x.sroa.0.0_cache, align 8
  %16 = load double*, double** %x.sroa.0.0_cache, align 8, !dereferenceable !16, !invariant.group !17
  %17 = getelementptr inbounds double, double* %16, i64 %iv
  store double %x.sroa.0.0, double* %17, align 8, !invariant.group !18
  %18 = trunc i64 %iv to i32
  %mul2.i.i.i.i.i.i.i.i = fmul fast double %mul.i, %x.sroa.0.0
  %19 = fsub fast double %x.sroa.0.0, %mul2.i.i.i.i.i.i.i.i
  %inc.i.i.i = add nuw nsw i32 %18, 1
  %conv.i.i.i = sitofp i32 %inc.i.i.i to double
  %mul.i.i.i = fmul fast double %div, %conv.i.i.i
  %add.i.i.i = fadd fast double %mul.i.i.i, %div
  %sub.i.i.i.i = fsub fast double %add.i.i.i, %t
  %cmp2.i.i.i.i = fcmp fast ole double %sub.i.i.i.i, 0x3CB0000000000000
  %sub3.i.i.i.i = fsub fast double %t, %add.i.i.i
  %cmp5.i.i.i.i = fcmp fast ole double %sub3.i.i.i.i, 0x3CB0000000000000
  %retval.0.i.i.i.i = select i1 %cmp.i.i.i.i, i1 %cmp2.i.i.i.i, i1 %cmp5.i.i.i.i
  br i1 %retval.0.i.i.i.i, label %while.body.i.i.i, label %_ZN5boost7numeric6odeint15integrate_constINS1_5eulerINS_5arrayIdLm1EEEdS5_dNS1_13array_algebraENS1_18default_operationsENS1_17initially_resizerEEEPFvRKS5_RS5_dES5_dEEmT_T0_RT1_T2_SJ_SJ_.exit.loopexit, !llvm.loop !6

_ZN5boost7numeric6odeint15integrate_constINS1_5eulerINS_5arrayIdLm1EEEdS5_dNS1_13array_algebraENS1_18default_operationsENS1_17initially_resizerEEEPFvRKS5_RS5_dES5_dEEmT_T0_RT1_T2_SJ_SJ_.exit.loopexit: ; preds = %__enzyme_exponentialallocation.exit
  %20 = phi i64 [ %iv, %__enzyme_exponentialallocation.exit ]
  store i64 %20, i64* %loopLimit_cache, align 8, !invariant.group !19
  br label %_ZN5boost7numeric6odeint15integrate_constINS1_5eulerINS_5arrayIdLm1EEEdS5_dNS1_13array_algebraENS1_18default_operationsENS1_17initially_resizerEEEPFvRKS5_RS5_dES5_dEEmT_T0_RT1_T2_SJ_SJ_.exit

_ZN5boost7numeric6odeint15integrate_constINS1_5eulerINS_5arrayIdLm1EEEdS5_dNS1_13array_algebraENS1_18default_operationsENS1_17initially_resizerEEEPFvRKS5_RS5_dES5_dEEmT_T0_RT1_T2_SJ_SJ_.exit: ; preds = %_ZN5boost7numeric6odeint15integrate_constINS1_5eulerINS_5arrayIdLm1EEEdS5_dNS1_13array_algebraENS1_18default_operationsENS1_17initially_resizerEEEPFvRKS5_RS5_dES5_dEEmT_T0_RT1_T2_SJ_SJ_.exit.loopexit, %entry
  br label %invert_ZN5boost7numeric6odeint15integrate_constINS1_5eulerINS_5arrayIdLm1EEEdS5_dNS1_13array_algebraENS1_18default_operationsENS1_17initially_resizerEEEPFvRKS5_RS5_dES5_dEEmT_T0_RT1_T2_SJ_SJ_.exit

invertentry:                                      ; preds = %invert_ZN5boost7numeric6odeint15integrate_constINS1_5eulerINS_5arrayIdLm1EEEdS5_dNS1_13array_algebraENS1_18default_operationsENS1_17initially_resizerEEEPFvRKS5_RS5_dES5_dEEmT_T0_RT1_T2_SJ_SJ_.exit, %invertwhile.body.i.i.i.preheader
  %21 = load double, double* %"div'de", align 8
  %d0diffet = fdiv fast double %21, %conv
  store double 0.000000e+00, double* %"div'de", align 8
  %22 = load double, double* %"t'de", align 8
  %23 = fadd fast double %22, %d0diffet
  store double %23, double* %"t'de", align 8
  %24 = load double, double* %"t'de", align 8
  %25 = insertvalue { double } undef, double %24, 0
  ret { double } %25

invertwhile.body.i.i.i.preheader:                 ; preds = %invertwhile.body.i.i.i
  %26 = load double, double* %"mul.i'de", align 8
  %m0diffediv = fmul fast double %26, 1.200000e+00
  store double 0.000000e+00, double* %"mul.i'de", align 8
  %27 = load double, double* %"div'de", align 8
  %28 = fadd fast double %27, %m0diffediv
  store double %28, double* %"div'de", align 8
  %29 = load i64, i64* %"iv'ac", align 8
  %forfree = load double*, double** %x.sroa.0.0_cache, align 8, !dereferenceable !16, !invariant.group !17
  %30 = bitcast double* %forfree to i8*
  tail call void @free(i8* nonnull %30)
  br label %invertentry

invertwhile.body.i.i.i:                           ; preds = %mergeinvertwhile.body.i.i.i__ZN5boost7numeric6odeint15integrate_constINS1_5eulerINS_5arrayIdLm1EEEdS5_dNS1_13array_algebraENS1_18default_operationsENS1_17initially_resizerEEEPFvRKS5_RS5_dES5_dEEmT_T0_RT1_T2_SJ_SJ_.exit.loopexit, %incinvertwhile.body.i.i.i
  %31 = load double, double* %"'de", align 8
  %32 = fneg fast double %31
  store double 0.000000e+00, double* %"'de", align 8
  %33 = load double, double* %"x.sroa.0.0'de", align 8
  %34 = fadd fast double %33, %31
  store double %34, double* %"x.sroa.0.0'de", align 8
  %35 = load double, double* %"mul2.i.i.i.i.i.i.i.i'de", align 8
  %36 = fadd fast double %35, %32
  store double %36, double* %"mul2.i.i.i.i.i.i.i.i'de", align 8
  %37 = load double, double* %"mul2.i.i.i.i.i.i.i.i'de", align 8
  %38 = load i64, i64* %"iv'ac", align 8
  %39 = load double*, double** %x.sroa.0.0_cache, align 8, !dereferenceable !16, !invariant.group !17
  %40 = getelementptr inbounds double, double* %39, i64 %38
  %41 = load double, double* %40, align 8, !invariant.group !18
  %m0diffemul.i = fmul fast double %37, %41
  %42 = load i64, i64* %"iv'ac", align 8
  %mul.i_unwrap = fmul fast double %div, 1.200000e+00
  %m1diffex.sroa.0.0 = fmul fast double %37, %mul.i_unwrap
  store double 0.000000e+00, double* %"mul2.i.i.i.i.i.i.i.i'de", align 8
  %43 = load double, double* %"mul.i'de", align 8
  %44 = fadd fast double %43, %m0diffemul.i
  store double %44, double* %"mul.i'de", align 8
  %45 = load double, double* %"x.sroa.0.0'de", align 8
  %46 = fadd fast double %45, %m1diffex.sroa.0.0
  store double %46, double* %"x.sroa.0.0'de", align 8
  %47 = load double, double* %"x.sroa.0.0'de", align 8
  store double 0.000000e+00, double* %"x.sroa.0.0'de", align 8
  %48 = load i64, i64* %"iv'ac", align 8
  %49 = icmp eq i64 %48, 0
  %50 = xor i1 %49, true
  %51 = select fast i1 %50, double %47, double 0.000000e+00
  %52 = load double, double* %"'de", align 8
  %53 = fadd fast double %52, %47
  %54 = select fast i1 %49, double %52, double %53
  store double %54, double* %"'de", align 8
  br i1 %49, label %invertwhile.body.i.i.i.preheader, label %incinvertwhile.body.i.i.i

incinvertwhile.body.i.i.i:                        ; preds = %invertwhile.body.i.i.i
  %55 = load i64, i64* %"iv'ac", align 8
  %56 = add nsw i64 %55, -1
  store i64 %56, i64* %"iv'ac", align 8
  br label %invertwhile.body.i.i.i

invert_ZN5boost7numeric6odeint15integrate_constINS1_5eulerINS_5arrayIdLm1EEEdS5_dNS1_13array_algebraENS1_18default_operationsENS1_17initially_resizerEEEPFvRKS5_RS5_dES5_dEEmT_T0_RT1_T2_SJ_SJ_.exit.loopexit: ; preds = %invert_ZN5boost7numeric6odeint15integrate_constINS1_5eulerINS_5arrayIdLm1EEEdS5_dNS1_13array_algebraENS1_18default_operationsENS1_17initially_resizerEEEPFvRKS5_RS5_dES5_dEEmT_T0_RT1_T2_SJ_SJ_.exit
  %57 = load i64, i64* %loopLimit_cache, align 8, !invariant.group !19
  br label %mergeinvertwhile.body.i.i.i__ZN5boost7numeric6odeint15integrate_constINS1_5eulerINS_5arrayIdLm1EEEdS5_dNS1_13array_algebraENS1_18default_operationsENS1_17initially_resizerEEEPFvRKS5_RS5_dES5_dEEmT_T0_RT1_T2_SJ_SJ_.exit.loopexit

mergeinvertwhile.body.i.i.i__ZN5boost7numeric6odeint15integrate_constINS1_5eulerINS_5arrayIdLm1EEEdS5_dNS1_13array_algebraENS1_18default_operationsENS1_17initially_resizerEEEPFvRKS5_RS5_dES5_dEEmT_T0_RT1_T2_SJ_SJ_.exit.loopexit: ; preds = %invert_ZN5boost7numeric6odeint15integrate_constINS1_5eulerINS_5arrayIdLm1EEEdS5_dNS1_13array_algebraENS1_18default_operationsENS1_17initially_resizerEEEPFvRKS5_RS5_dES5_dEEmT_T0_RT1_T2_SJ_SJ_.exit.loopexit
  store i64 %57, i64* %"iv'ac", align 8
  br label %invertwhile.body.i.i.i

invert_ZN5boost7numeric6odeint15integrate_constINS1_5eulerINS_5arrayIdLm1EEEdS5_dNS1_13array_algebraENS1_18default_operationsENS1_17initially_resizerEEEPFvRKS5_RS5_dES5_dEEmT_T0_RT1_T2_SJ_SJ_.exit: ; preds = %_ZN5boost7numeric6odeint15integrate_constINS1_5eulerINS_5arrayIdLm1EEEdS5_dNS1_13array_algebraENS1_18default_operationsENS1_17initially_resizerEEEPFvRKS5_RS5_dES5_dEEmT_T0_RT1_T2_SJ_SJ_.exit
  store double %differeturn, double* %"x.sroa.0.1'de", align 8
  %58 = load double, double* %"x.sroa.0.1'de", align 8
  store double 0.000000e+00, double* %"x.sroa.0.1'de", align 8
  %59 = select fast i1 %retval.0.i25.i.i.i, double %58, double 0.000000e+00
  %60 = load double, double* %"'de", align 8
  %61 = fadd fast double %60, %58
  %62 = select fast i1 %retval.0.i25.i.i.i, double %61, double %60
  store double %62, double* %"'de", align 8
  br i1 %retval.0.i25.i.i.i, label %invert_ZN5boost7numeric6odeint15integrate_constINS1_5eulerINS_5arrayIdLm1EEEdS5_dNS1_13array_algebraENS1_18default_operationsENS1_17initially_resizerEEEPFvRKS5_RS5_dES5_dEEmT_T0_RT1_T2_SJ_SJ_.exit.loopexit, label %invertentry
}

declare noalias i8* @malloc(i64)

; Function Attrs: argmemonly nofree nosync nounwind willreturn writeonly
declare void @llvm.memset.p0i8.i64(i8* nocapture writeonly, i8, i64, i1 immarg) #12

; Function Attrs: alwaysinline nounwind
define internal i8* @__enzyme_exponentialallocation(i8* %ptr, i64 %size, i64 %tsize) #13 {
entry:
  %0 = and i64 %size, 1
  %1 = icmp ne i64 %0, 0
  %2 = call i64 @llvm.ctpop.i64(i64 %size)
  %3 = icmp ult i64 %2, 3
  %4 = and i1 %3, %1
  br i1 %4, label %grow, label %ok

grow:                                             ; preds = %entry
  %5 = call i64 @llvm.ctlz.i64(i64 %size, i1 true)
  %6 = sub nuw nsw i64 64, %5
  %7 = shl i64 %tsize, %6
  %8 = lshr i64 %7, 1
  %9 = icmp eq i64 %size, 1
  %10 = select i1 %9, i64 0, i64 %8
  %11 = call i8* @realloc(i8* %ptr, i64 %7)
  br label %ok

ok:                                               ; preds = %grow, %entry
  %12 = phi i8* [ %11, %grow ], [ %ptr, %entry ]
  ret i8* %12
}

; Function Attrs: nofree nosync nounwind readnone speculatable willreturn
declare i64 @llvm.ctpop.i64(i64) #14

; Function Attrs: nofree nosync nounwind readnone speculatable willreturn
declare i64 @llvm.ctlz.i64(i64, i1 immarg) #14

declare i8* @realloc(i8*, i64)

declare void @free(i8*)

attributes #0 = { "denormal-fp-math"="preserve-sign,preserve-sign" "denormal-fp-math-f32"="ieee,ieee" "disable-tail-calls"="false" "frame-pointer"="none" "less-precise-fpmad"="false" "no-infs-fp-math"="true" "no-nans-fp-math"="true" "no-signed-zeros-fp-math"="true" "no-trapping-math"="true" "stack-protector-buffer-size"="8" "target-cpu"="x86-64" "target-features"="+cx8,+fxsr,+mmx,+sse,+sse2,+x87" "tune-cpu"="generic" "unsafe-fp-math"="true" "use-soft-float"="false" }
attributes #1 = { nounwind "denormal-fp-math"="preserve-sign,preserve-sign" "denormal-fp-math-f32"="ieee,ieee" "disable-tail-calls"="false" "frame-pointer"="none" "less-precise-fpmad"="false" "no-infs-fp-math"="true" "no-nans-fp-math"="true" "no-signed-zeros-fp-math"="true" "no-trapping-math"="true" "stack-protector-buffer-size"="8" "target-cpu"="x86-64" "target-features"="+cx8,+fxsr,+mmx,+sse,+sse2,+x87" "tune-cpu"="generic" "unsafe-fp-math"="true" "use-soft-float"="false" }
attributes #2 = { nounwind uwtable "denormal-fp-math"="preserve-sign,preserve-sign" "denormal-fp-math-f32"="ieee,ieee" "disable-tail-calls"="false" "frame-pointer"="none" "less-precise-fpmad"="false" "min-legal-vector-width"="0" "no-infs-fp-math"="true" "no-jump-tables"="false" "no-nans-fp-math"="true" "no-signed-zeros-fp-math"="true" "no-trapping-math"="true" "stack-protector-buffer-size"="8" "target-cpu"="x86-64" "target-features"="+cx8,+fxsr,+mmx,+sse,+sse2,+x87" "tune-cpu"="generic" "unsafe-fp-math"="true" "use-soft-float"="false" }
attributes #3 = { nounwind }
attributes #4 = { nofree norecurse nounwind uwtable willreturn mustprogress "denormal-fp-math"="preserve-sign,preserve-sign" "denormal-fp-math-f32"="ieee,ieee" "disable-tail-calls"="false" "frame-pointer"="none" "less-precise-fpmad"="false" "min-legal-vector-width"="0" "no-infs-fp-math"="true" "no-jump-tables"="false" "no-nans-fp-math"="true" "no-signed-zeros-fp-math"="true" "no-trapping-math"="true" "stack-protector-buffer-size"="8" "target-cpu"="x86-64" "target-features"="+cx8,+fxsr,+mmx,+sse,+sse2,+x87" "tune-cpu"="generic" "unsafe-fp-math"="true" "use-soft-float"="false" }
attributes #5 = { argmemonly nofree nosync nounwind willreturn }
attributes #6 = { nounwind readnone uwtable "denormal-fp-math"="preserve-sign,preserve-sign" "denormal-fp-math-f32"="ieee,ieee" "disable-tail-calls"="false" "frame-pointer"="none" "less-precise-fpmad"="false" "min-legal-vector-width"="0" "no-infs-fp-math"="true" "no-jump-tables"="false" "no-nans-fp-math"="true" "no-signed-zeros-fp-math"="true" "no-trapping-math"="true" "stack-protector-buffer-size"="8" "target-cpu"="x86-64" "target-features"="+cx8,+fxsr,+mmx,+sse,+sse2,+x87" "tune-cpu"="generic" "unsafe-fp-math"="true" "use-soft-float"="false" }
attributes #7 = { norecurse uwtable "denormal-fp-math"="preserve-sign,preserve-sign" "denormal-fp-math-f32"="ieee,ieee" "disable-tail-calls"="false" "frame-pointer"="none" "less-precise-fpmad"="false" "min-legal-vector-width"="0" "no-infs-fp-math"="true" "no-jump-tables"="false" "no-nans-fp-math"="true" "no-signed-zeros-fp-math"="true" "no-trapping-math"="true" "stack-protector-buffer-size"="8" "target-cpu"="x86-64" "target-features"="+cx8,+fxsr,+mmx,+sse,+sse2,+x87" "tune-cpu"="generic" "unsafe-fp-math"="true" "use-soft-float"="false" }
attributes #8 = { nofree nounwind "denormal-fp-math"="preserve-sign,preserve-sign" "denormal-fp-math-f32"="ieee,ieee" "disable-tail-calls"="false" "frame-pointer"="none" "less-precise-fpmad"="false" "no-infs-fp-math"="true" "no-nans-fp-math"="true" "no-signed-zeros-fp-math"="true" "no-trapping-math"="true" "stack-protector-buffer-size"="8" "target-cpu"="x86-64" "target-features"="+cx8,+fxsr,+mmx,+sse,+sse2,+x87" "tune-cpu"="generic" "unsafe-fp-math"="true" "use-soft-float"="false" }
attributes #9 = { nofree nounwind willreturn "denormal-fp-math"="preserve-sign,preserve-sign" "denormal-fp-math-f32"="ieee,ieee" "disable-tail-calls"="false" "frame-pointer"="none" "less-precise-fpmad"="false" "no-infs-fp-math"="true" "no-nans-fp-math"="true" "no-signed-zeros-fp-math"="true" "no-trapping-math"="true" "stack-protector-buffer-size"="8" "target-cpu"="x86-64" "target-features"="+cx8,+fxsr,+mmx,+sse,+sse2,+x87" "tune-cpu"="generic" "unsafe-fp-math"="true" "use-soft-float"="false" }
attributes #10 = { uwtable "denormal-fp-math"="preserve-sign,preserve-sign" "denormal-fp-math-f32"="ieee,ieee" "disable-tail-calls"="false" "frame-pointer"="none" "less-precise-fpmad"="false" "min-legal-vector-width"="0" "no-infs-fp-math"="true" "no-jump-tables"="false" "no-nans-fp-math"="true" "no-signed-zeros-fp-math"="true" "no-trapping-math"="true" "stack-protector-buffer-size"="8" "target-cpu"="x86-64" "target-features"="+cx8,+fxsr,+mmx,+sse,+sse2,+x87" "tune-cpu"="generic" "unsafe-fp-math"="true" "use-soft-float"="false" }
attributes #11 = { nounwind readnone uwtable willreturn mustprogress "denormal-fp-math"="preserve-sign,preserve-sign" "denormal-fp-math-f32"="ieee,ieee" "disable-tail-calls"="false" "frame-pointer"="none" "less-precise-fpmad"="false" "min-legal-vector-width"="0" "no-infs-fp-math"="true" "no-jump-tables"="false" "no-nans-fp-math"="true" "no-signed-zeros-fp-math"="true" "no-trapping-math"="true" "stack-protector-buffer-size"="8" "target-cpu"="x86-64" "target-features"="+cx8,+fxsr,+mmx,+sse,+sse2,+x87" "tune-cpu"="generic" "unsafe-fp-math"="true" "use-soft-float"="false" }
attributes #12 = { argmemonly nofree nosync nounwind willreturn writeonly }
attributes #13 = { alwaysinline nounwind }
attributes #14 = { nofree nosync nounwind readnone speculatable willreturn }

!llvm.module.flags = !{!0}
!llvm.ident = !{!1}

!0 = !{i32 1, !"wchar_size", i32 4}
!1 = !{!"clang version 12.0.1"}
!2 = !{!3, !3, i64 0}
!3 = !{!"double", !4, i64 0}
!4 = !{!"omnipotent char", !5, i64 0}
!5 = !{!"Simple C++ TBAA"}
!6 = distinct !{!6, !7, !8}
!7 = !{!"llvm.loop.mustprogress"}
!8 = !{!"llvm.loop.unroll.disable"}
!9 = !{!10, !10, i64 0}
!10 = !{!"any pointer", !4, i64 0}
!11 = !{!12, !13, i64 0}
!12 = !{!"_ZTS7timeval", !13, i64 0, !13, i64 8}
!13 = !{!"long", !4, i64 0}
!14 = !{!12, !13, i64 8}
!15 = distinct !{!15, !7, !8}
!16 = !{i64 8}
!17 = distinct !{}
!18 = distinct !{}
!19 = distinct !{}
